; ModuleID = '60/1863.c'
source_filename = "60/1863.c"
target datalayout = "e-m:e-p270:32:32-p271:32:32-p272:64:64-i64:64-f80:128-n8:16:32:64-S128"
target triple = "x86_64-pc-linux-gnu"

@.str = private unnamed_addr constant [3 x i8] c"%d\00", align 1
@.str.1 = private unnamed_addr constant [5 x i8] c"3 5\0A\00", align 1
@.str.2 = private unnamed_addr constant [7 x i8] c"empty\0A\00", align 1
@.str.3 = private unnamed_addr constant [7 x i8] c"%d %d\0A\00", align 1

; Function Attrs: noinline nounwind uwtable
define dso_local i32 @main() #0 {
  %1 = alloca i32, align 4
  %2 = alloca i32, align 4
  %3 = alloca i32, align 4
  %4 = alloca i32, align 4
  %5 = alloca i32, align 4
  store i32 0, i32* %1, align 4
  %6 = call i32 (i8*, ...) @__isoc99_scanf(i8* getelementptr inbounds ([3 x i8], [3 x i8]* @.str, i64 0, i64 0), i32* %2)
  %7 = load i32, i32* %2, align 4
  %8 = icmp eq i32 %7, 5
  br i1 %8, label %9, label %11

9:                                                ; preds = %0
  %10 = call i32 (i8*, ...) @printf(i8* getelementptr inbounds ([5 x i8], [5 x i8]* @.str.1, i64 0, i64 0))
  br label %75

11:                                               ; preds = %0
  %12 = load i32, i32* %2, align 4
  %13 = icmp sle i32 %12, 4
  br i1 %13, label %14, label %16

14:                                               ; preds = %11
  %15 = call i32 (i8*, ...) @printf(i8* getelementptr inbounds ([7 x i8], [7 x i8]* @.str.2, i64 0, i64 0))
  br label %74

16:                                               ; preds = %11
  store i32 2, i32* %4, align 4
  br label %17

17:                                               ; preds = %70, %16
  %18 = load i32, i32* %4, align 4
  %19 = load i32, i32* %2, align 4
  %20 = icmp sle i32 %18, %19
  br i1 %20, label %21, label %73

21:                                               ; preds = %17
  store i32 2, i32* %3, align 4
  br label %22

22:                                               ; preds = %66, %21
  %23 = load i32, i32* %3, align 4
  %24 = load i32, i32* %4, align 4
  %25 = icmp slt i32 %23, %24
  br i1 %25, label %26, label %69

26:                                               ; preds = %22
  %27 = load i32, i32* %4, align 4
  %28 = load i32, i32* %3, align 4
  %29 = srem i32 %27, %28
  %30 = icmp eq i32 %29, 0
  br i1 %30, label %31, label %32

31:                                               ; preds = %26
  br label %69

32:                                               ; preds = %26
  %33 = load i32, i32* %3, align 4
  %34 = load i32, i32* %4, align 4
  %35 = sub nsw i32 %34, 1
  %36 = icmp eq i32 %33, %35
  br i1 %36, label %37, label %65

37:                                               ; preds = %32
  store i32 2, i32* %5, align 4
  br label %38

38:                                               ; preds = %61, %37
  %39 = load i32, i32* %5, align 4
  %40 = load i32, i32* %4, align 4
  %41 = add nsw i32 %40, 2
  %42 = icmp slt i32 %39, %41
  br i1 %42, label %43, label %64

43:                                               ; preds = %38
  %44 = load i32, i32* %4, align 4
  %45 = add nsw i32 %44, 2
  %46 = load i32, i32* %5, align 4
  %47 = srem i32 %45, %46
  %48 = icmp eq i32 %47, 0
  br i1 %48, label %49, label %50

49:                                               ; preds = %43
  br label %64

50:                                               ; preds = %43
  %51 = load i32, i32* %5, align 4
  %52 = load i32, i32* %4, align 4
  %53 = add nsw i32 %52, 1
  %54 = icmp eq i32 %51, %53
  br i1 %54, label %55, label %60

55:                                               ; preds = %50
  %56 = load i32, i32* %4, align 4
  %57 = load i32, i32* %4, align 4
  %58 = add nsw i32 %57, 2
  %59 = call i32 (i8*, ...) @printf(i8* getelementptr inbounds ([7 x i8], [7 x i8]* @.str.3, i64 0, i64 0), i32 %56, i32 %58)
  br label %60

60:                                               ; preds = %55, %50
  br label %61

61:                                               ; preds = %60
  %62 = load i32, i32* %5, align 4
  %63 = add nsw i32 %62, 1
  store i32 %63, i32* %5, align 4
  br label %38

64:                                               ; preds = %49, %38
  br label %65

65:                                               ; preds = %64, %32
  br label %66

66:                                               ; preds = %65
  %67 = load i32, i32* %3, align 4
  %68 = add nsw i32 %67, 1
  store i32 %68, i32* %3, align 4
  br label %22

69:                                               ; preds = %31, %22
  br label %70

70:                                               ; preds = %69
  %71 = load i32, i32* %4, align 4
  %72 = add nsw i32 %71, 1
  store i32 %72, i32* %4, align 4
  br label %17

73:                                               ; preds = %17
  br label %74

74:                                               ; preds = %73, %14
  br label %75

75:                                               ; preds = %74, %9
  %76 = load i32, i32* %1, align 4
  ret i32 %76
}

declare dso_local i32 @__isoc99_scanf(i8*, ...) #1

declare dso_local i32 @printf(i8*, ...) #1


!llvm.module.flags = !{!0}
!llvm.ident = !{!1}

!0 = !{i32 1, !"wchar_size", i32 4}
!1 = !{!"clang version 10.0.0-4ubuntu1 "}
